Certificate:
    Data:
        Version: 3 (0x2)
        Serial Number: 1 (0x1)
    Signature Algorithm: sha256WithRSAEncryption
        Issuer: CN=devcert
        Validity
            Not Before: Apr 28 02:15:13 2020 GMT
            Not After : Aug  1 02:15:13 2022 GMT
        Subject: CN=localhost
        Subject Public Key Info:
            Public Key Algorithm: rsaEncryption
                Public-Key: (2048 bit)
                Modulus:
                    00:bd:33:95:98:0b:74:58:1f:f0:a9:b6:d0:d3:b0:
                    01:fa:00:f7:2e:97:81:62:18:11:54:67:11:f3:83:
                    c1:3f:54:cf:48:26:22:f7:8d:88:9b:3a:80:cd:fe:
                    6c:80:3d:c9:8b:14:5b:e6:3c:76:90:1a:68:89:60:
                    b5:d2:5a:66:49:54:a5:fc:d2:43:4b:94:0f:65:b3:
                    e7:fb:8a:44:b7:cd:ea:23:1e:14:b4:5f:bf:67:31:
                    71:1c:3a:6c:eb:6d:65:65:eb:bf:cb:e8:ef:a7:e4:
                    a5:6c:7a:5a:42:da:67:ab:d0:ec:34:c0:b9:6e:59:
                    90:cf:d4:97:20:40:b7:1f:fb:78:31:d0:b6:11:a0:
                    ef:35:d9:65:58:df:72:fd:52:2a:cf:c5:92:b0:1e:
                    29:bd:c9:99:4c:35:8b:97:89:1a:ec:d7:bd:15:cd:
                    88:7d:9a:9a:70:9c:aa:76:3b:9f:e5:4b:d8:7e:a7:
                    72:1e:ee:2e:1c:24:15:bd:4a:bb:c1:1f:ec:cd:a9:
                    8c:1a:01:00:09:d7:3d:c2:f9:f6:6a:06:84:53:7b:
                    f0:d4:5f:0f:49:4f:c2:49:b1:83:ce:e0:1e:47:25:
                    83:61:1d:27:6d:cd:fd:04:1e:39:c3:c7:57:a4:fe:
                    93:bc:02:4f:0e:d4:ea:91:9c:e9:04:a0:80:95:e9:
                    ef:55
                Exponent: 65537 (0x10001)
        X509v3 extensions:
            X509v3 Basic Constraints: critical
                CA:FALSE
            X509v3 Subject Key Identifier: 
                4D:AA:A3:EB:62:47:36:6B:DA:4F:39:90:BE:E4:7B:90:ED:8F:40:B3
            X509v3 Authority Key Identifier: 
                keyid:B9:42:0D:2F:B3:72:0D:FF:69:BD:CF:58:64:BB:B4:12:4B:78:5A:93
                DirName:/CN=devcert
                serial:E4:63:60:71:99:CA:2F:33

            X509v3 Key Usage: critical
                Digital Signature, Key Encipherment
            X509v3 Extended Key Usage: 
                TLS Web Server Authentication
            X509v3 Subject Alternative Name: 
                DNS:localhost, DNS:*.localhost
    Signature Algorithm: sha256WithRSAEncryption
         a8:1c:39:bb:75:d3:c2:f2:92:d2:ec:88:a3:14:47:7d:0c:55:
         44:81:18:34:e5:09:b2:1b:29:6c:74:bf:c7:63:fc:b7:53:fb:
         03:b3:b4:ed:07:52:88:ae:39:5f:0b:df:70:d1:cf:31:f0:97:
         b5:75:f0:e4:6c:0e:2b:c0:56:3c:45:2e:b9:d7:f6:0e:17:e1:
         66:f2:56:1e:04:a8:d9:bb:e1:6a:8b:14:ec:8a:4a:7f:6c:71:
         fe:72:0e:50:9d:30:fa:0c:ce:ae:4b:70:63:49:34:45:ef:01:
         89:9a:f7:1e:13:ec:d1:e3:ce:be:79:0b:16:70:36:0a:b1:3d:
         d4:12:8d:9d:01:cd:80:62:74:c5:15:da:d1:e1:9e:f1:d8:68:
         b0:e1:41:6c:49:73:a1:06:cd:e0:b1:3d:b2:59:82:94:0a:b5:
         72:cd:b1:52:de:e3:45:17:83:c4:7b:36:88:21:4c:e4:26:69:
         21:c8:b5:08:a8:ae:96:b0:0d:88:dc:f3:7a:79:a2:27:1a:d5:
         31:f3:12:2c:c6:51:30:19:f7:3f:01:c7:50:33:6a:19:21:ed:
         d7:45:1b:fd:4d:42:ae:8e:a7:e5:b5:cc:c5:81:00:62:b7:bf:
         d9:09:7b:28:fa:f7:70:4a:19:67:f9:c1:35:5d:70:03:e5:4f:
         6c:bc:d0:6a
-----BEGIN CERTIFICATE-----
MIIDXjCCAkagAwIBAgIBATANBgkqhkiG9w0BAQsFADASMRAwDgYDVQQDDAdkZXZj
ZXJ0MB4XDTIwMDQyODAyMTUxM1oXDTIyMDgwMTAyMTUxM1owFDESMBAGA1UEAwwJ
bG9jYWxob3N0MIIBIjANBgkqhkiG9w0BAQEFAAOCAQ8AMIIBCgKCAQEAvTOVmAt0
WB/wqbbQ07AB+gD3LpeBYhgRVGcR84PBP1TPSCYi942ImzqAzf5sgD3JixRb5jx2
kBpoiWC10lpmSVSl/NJDS5QPZbPn+4pEt83qIx4UtF+/ZzFxHDps621lZeu/y+jv
p+SlbHpaQtpnq9DsNMC5blmQz9SXIEC3H/t4MdC2EaDvNdllWN9y/VIqz8WSsB4p
vcmZTDWLl4ka7Ne9Fc2IfZqacJyqdjuf5UvYfqdyHu4uHCQVvUq7wR/szamMGgEA
Cdc9wvn2agaEU3vw1F8PSU/CSbGDzuAeRyWDYR0nbc39BB45w8dXpP6TvAJPDtTq
kZzpBKCAlenvVQIDAQABo4G8MIG5MAwGA1UdEwEB/wQCMAAwHQYDVR0OBBYEFE2q
o+tiRzZr2k85kL7ke5Dtj0CzMEIGA1UdIwQ7MDmAFLlCDS+zcg3/ab3PWGS7tBJL
eFqToRakFDASMRAwDgYDVQQDDAdkZXZjZXJ0ggkA5GNgcZnKLzMwDgYDVR0PAQH/
BAQDAgWgMBMGA1UdJQQMMAoGCCsGAQUFBwMBMCEGA1UdEQQaMBiCCWxvY2FsaG9z
dIILKi5sb2NhbGhvc3QwDQYJKoZIhvcNAQELBQADggEBAKgcObt108LyktLsiKMU
R30MVUSBGDTlCbIbKWx0v8dj/LdT+wOztO0HUoiuOV8L33DRzzHwl7V18ORsDivA
VjxFLrnX9g4X4WbyVh4EqNm74WqLFOyKSn9scf5yDlCdMPoMzq5LcGNJNEXvAYma
9x4T7NHjzr55CxZwNgqxPdQSjZ0BzYBidMUV2tHhnvHYaLDhQWxJc6EGzeCxPbJZ
gpQKtXLNsVLe40UXg8R7NoghTOQmaSHItQiorpawDYjc83p5oica1THzEizGUTAZ
9z8Bx1Azahkh7ddFG/1NQq6Op+W1zMWBAGK3v9kJeyj693BKGWf5wTVdcAPlT2y8
0Go=
-----END CERTIFICATE-----
