Certificate:
    Data:
        Version: 3 (0x2)
        Serial Number: 1 (0x1)
        Signature Algorithm: sha256WithRSAEncryption
        Issuer: CN=devcert
        Validity
            Not Before: Apr 28 02:35:26 2020 GMT
            Not After : Aug  1 02:35:26 2022 GMT
        Subject: CN=localhost
        Subject Public Key Info:
            Public Key Algorithm: rsaEncryption
                RSA Public-Key: (2048 bit)
                Modulus:
                    00:b3:59:44:22:27:27:0d:ca:36:d2:9c:40:14:96:
                    51:71:79:d8:cf:40:63:09:40:e0:cd:d6:58:c7:27:
                    bf:3c:d2:31:12:47:99:d6:5f:b0:fe:84:8f:7b:be:
                    20:81:9f:3d:83:93:dc:73:af:10:0d:46:1d:8a:b9:
                    e4:04:27:b9:9c:a4:05:73:1e:4a:10:04:2a:d0:4c:
                    ee:13:90:58:46:61:71:b0:3d:d6:37:32:4e:49:cc:
                    8d:55:82:8d:0a:57:c2:93:07:92:57:37:8e:fb:17:
                    fa:14:bd:1e:59:18:cc:6d:e6:e5:96:1c:b9:85:96:
                    b1:f9:4c:6b:a4:32:9e:c8:33:1a:8d:91:61:09:5e:
                    19:6b:d3:1f:5e:fe:2f:54:af:a2:93:50:ec:ed:2b:
                    a1:fa:bb:31:58:f9:2e:95:f9:c4:3c:13:b2:a0:b7:
                    5b:68:9a:ff:c4:cd:03:fb:f8:2c:63:03:0e:7d:f7:
                    fe:b3:e7:7f:c5:33:3a:c9:69:fd:79:bc:8e:84:9b:
                    87:5d:2b:fc:27:c4:b1:61:5d:a6:a9:4e:75:36:fb:
                    a7:62:57:81:1b:50:17:a8:5c:99:0c:f6:3b:4d:a1:
                    9b:1a:15:fe:08:e4:1a:0b:0f:d8:d5:bd:21:1e:35:
                    2d:b9:7e:79:65:f9:6f:cf:f2:9f:e8:d9:bc:1b:8d:
                    ae:01
                Exponent: 65537 (0x10001)
        X509v3 extensions:
            X509v3 Basic Constraints: critical
                CA:FALSE
            X509v3 Subject Key Identifier: 
                C3:D7:DE:9A:66:12:0C:A0:B6:09:57:7B:BF:66:A4:8B:6D:57:0E:F5
            X509v3 Authority Key Identifier: 
                keyid:E0:B4:7F:FF:91:6B:8F:E4:28:6D:6C:FD:86:E3:74:7E:B9:02:8B:FB
                DirName:/CN=devcert
                serial:20:9D:86:CB:C7:1A:A1:EE:AB:AC:EA:91:EE:AA:89:A9:68:09:BB:51

            X509v3 Key Usage: critical
                Digital Signature, Key Encipherment
            X509v3 Extended Key Usage: 
                TLS Web Server Authentication
            X509v3 Subject Alternative Name: 
                DNS:localhost, DNS:*.localhost
    Signature Algorithm: sha256WithRSAEncryption
         67:28:a5:fe:56:fc:fc:c2:31:57:c0:99:a5:6b:17:47:13:3f:
         97:8a:12:3c:1d:87:d3:12:05:e9:64:69:32:ce:8f:79:83:6e:
         69:74:cc:20:a8:a6:6e:88:49:34:22:90:2a:9b:ef:6d:2f:2f:
         b3:33:1d:d4:7d:9c:97:3b:42:ab:d5:65:c2:d5:33:be:ce:35:
         b2:b8:e4:8d:29:d9:77:ff:b7:3d:03:f7:23:ec:82:04:c6:e7:
         2c:e7:d1:4e:10:b9:af:d9:80:79:5f:55:b7:a1:75:b3:ee:ef:
         4a:d4:44:32:38:7a:3d:3a:07:16:c9:82:3b:80:90:0f:45:31:
         20:f3:8e:28:f5:f6:bd:5e:73:7b:fc:3f:c2:cc:bb:89:73:48:
         cd:2d:e1:8c:ed:34:36:62:6b:e6:f6:5a:94:69:10:df:e2:07:
         9e:33:f9:bb:c5:de:2f:ae:69:2c:d2:85:45:0f:eb:0f:7f:43:
         ca:7e:2f:58:32:5c:47:c8:24:49:1a:f6:2b:02:95:b3:cc:fc:
         87:6f:34:0a:5e:a0:84:aa:09:b9:e8:23:54:7d:36:c6:97:99:
         ef:58:10:c7:3b:b7:35:f0:d5:c4:0a:8e:ab:50:81:b6:5a:62:
         db:da:95:1a:1f:9a:c3:0d:6b:dc:fd:79:ba:f1:05:13:f1:3f:
         38:72:6e:23
-----BEGIN CERTIFICATE-----
MIIDaTCCAlGgAwIBAgIBATANBgkqhkiG9w0BAQsFADASMRAwDgYDVQQDDAdkZXZj
ZXJ0MB4XDTIwMDQyODAyMzUyNloXDTIyMDgwMTAyMzUyNlowFDESMBAGA1UEAwwJ
bG9jYWxob3N0MIIBIjANBgkqhkiG9w0BAQEFAAOCAQ8AMIIBCgKCAQEAs1lEIicn
Dco20pxAFJZRcXnYz0BjCUDgzdZYxye/PNIxEkeZ1l+w/oSPe74ggZ89g5Pcc68Q
DUYdirnkBCe5nKQFcx5KEAQq0EzuE5BYRmFxsD3WNzJOScyNVYKNClfCkweSVzeO
+xf6FL0eWRjMbebllhy5hZax+UxrpDKeyDMajZFhCV4Za9MfXv4vVK+ik1Ds7Suh
+rsxWPkulfnEPBOyoLdbaJr/xM0D+/gsYwMOfff+s+d/xTM6yWn9ebyOhJuHXSv8
J8SxYV2mqU51NvunYleBG1AXqFyZDPY7TaGbGhX+COQaCw/Y1b0hHjUtuX55Zflv
z/Kf6Nm8G42uAQIDAQABo4HHMIHEMAwGA1UdEwEB/wQCMAAwHQYDVR0OBBYEFMPX
3ppmEgygtglXe79mpIttVw71ME0GA1UdIwRGMESAFOC0f/+Ra4/kKG1s/YbjdH65
Aov7oRakFDASMRAwDgYDVQQDDAdkZXZjZXJ0ghQgnYbLxxqh7qus6pHuqompaAm7
UTAOBgNVHQ8BAf8EBAMCBaAwEwYDVR0lBAwwCgYIKwYBBQUHAwEwIQYDVR0RBBow
GIIJbG9jYWxob3N0ggsqLmxvY2FsaG9zdDANBgkqhkiG9w0BAQsFAAOCAQEAZyil
/lb8/MIxV8CZpWsXRxM/l4oSPB2H0xIF6WRpMs6PeYNuaXTMIKimbohJNCKQKpvv
bS8vszMd1H2clztCq9VlwtUzvs41srjkjSnZd/+3PQP3I+yCBMbnLOfRThC5r9mA
eV9Vt6F1s+7vStREMjh6PToHFsmCO4CQD0UxIPOOKPX2vV5ze/w/wsy7iXNIzS3h
jO00NmJr5vZalGkQ3+IHnjP5u8XeL65pLNKFRQ/rD39Dyn4vWDJcR8gkSRr2KwKV
s8z8h280Cl6ghKoJuegjVH02xpeZ71gQxzu3NfDVxAqOq1CBtlpi29qVGh+aww1r
3P15uvEFE/E/OHJuIw==
-----END CERTIFICATE-----
